target datalayout = "e-m:e-p270:32:32-p271:32:32-p272:64:64-i64:64-i128:128-f80:128-n8:16:32:64-S128"
target triple = "x86_64-pc-linux-gnu"

%"class.gmx::PositionCalculationCollection::Impl" = type { ptr, ptr, ptr, i8, %"class.std::vector.5", %"class.std::vector.5" }
%"class.std::vector.5" = type { %"struct.std::_Vector_base.6" }
%"struct.std::_Vector_base.6" = type { %"struct.std::_Vector_base<int, std::allocator<int>>::_Vector_impl" }
%"struct.std::_Vector_base<int, std::allocator<int>>::_Vector_impl" = type { %"struct.std::_Vector_base<int, std::allocator<int>>::_Vector_impl_data" }
%"struct.std::_Vector_base<int, std::allocator<int>>::_Vector_impl_data" = type { ptr, ptr, ptr }
%struct.gmx_ana_poscalc_t = type { i32, i32, i32, %struct.t_blocka, ptr, %struct.gmx_ana_index_t, ptr, i8, ptr, ptr, ptr, i32, ptr }
%struct.t_blocka = type { i32, ptr, i32, ptr, i32, i32 }
%struct.gmx_ana_index_t = type { i32, ptr, i32 }
%class.anon = type { i8 }
%"class.gmx::PositionCalculationCollection" = type { %"class.std::unique_ptr.12" }
%"class.std::unique_ptr.12" = type { %"struct.std::__uniq_ptr_data.13" }
%"struct.std::__uniq_ptr_data.13" = type { %"class.std::__uniq_ptr_impl.14" }
%"class.std::__uniq_ptr_impl.14" = type { %"class.std::tuple.15" }
%"class.std::tuple.15" = type { %"struct.std::_Tuple_impl.16" }
%"struct.std::_Tuple_impl.16" = type { %"struct.std::_Head_base.19" }
%"struct.std::_Head_base.19" = type { ptr }

@.str.18 = private unnamed_addr constant [127 x i8] c"generated/home/dtcxzyw/WorkSpace/Projects/compilers/llvm-opt-benchmark/bench/gromacs/gromacs/src/gromacs/selection/poscalc.cpp\00", align 1
@.str.21 = private unnamed_addr constant [17 x i8] c"pc->coll == this\00", align 1
@.str.22 = private unnamed_addr constant [25 x i8] c"Inconsistent collections\00", align 1
@.str.23 = private unnamed_addr constant [3 x i8] c"pc\00", align 1

; Function Attrs: mustprogress nounwind uwtable
define linkonce_odr noundef nonnull align 8 dereferenceable(8) ptr @_ZNSt10_Head_baseILm0EPN3gmx29PositionCalculationCollection4ImplELb0EE7_M_headERKS4_(ptr noundef nonnull align 8 dereferenceable(8) %0) #3 comdat align 2 {
  %2 = alloca ptr, align 8
  store ptr %0, ptr %2, align 8, !tbaa !201
  %3 = load ptr, ptr %2, align 8, !tbaa !201
  %4 = getelementptr inbounds nuw %"struct.std::_Head_base.19", ptr %3, i32 0, i32 0
  ret ptr %4
}

; Function Attrs: mustprogress nounwind uwtable
define linkonce_odr noundef nonnull align 8 dereferenceable(8) ptr @_ZNSt11_Tuple_implILm0EJPN3gmx29PositionCalculationCollection4ImplESt14default_deleteIS2_EEE7_M_headERKS6_(ptr noundef nonnull align 8 dereferenceable(8) %0) #3 comdat align 2 {
  %2 = alloca ptr, align 8
  store ptr %0, ptr %2, align 8, !tbaa !197
  %3 = load ptr, ptr %2, align 8, !tbaa !197
  %4 = call noundef nonnull align 8 dereferenceable(8) ptr @_ZNSt10_Head_baseILm0EPN3gmx29PositionCalculationCollection4ImplELb0EE7_M_headERKS4_(ptr noundef nonnull align 8 dereferenceable(8) %3) #17
  ret ptr %4
}

; Function Attrs: mustprogress nounwind uwtable
define linkonce_odr noundef nonnull align 8 dereferenceable(8) ptr @_ZSt12__get_helperILm0EPN3gmx29PositionCalculationCollection4ImplEJSt14default_deleteIS2_EEERKT0_RKSt11_Tuple_implIXT_EJS6_DpT1_EE(ptr noundef nonnull align 8 dereferenceable(8) %0) #3 comdat {
  %2 = alloca ptr, align 8
  store ptr %0, ptr %2, align 8, !tbaa !197
  %3 = load ptr, ptr %2, align 8, !tbaa !197
  %4 = call noundef nonnull align 8 dereferenceable(8) ptr @_ZNSt11_Tuple_implILm0EJPN3gmx29PositionCalculationCollection4ImplESt14default_deleteIS2_EEE7_M_headERKS6_(ptr noundef nonnull align 8 dereferenceable(8) %3) #17
  ret ptr %4
}

; Function Attrs: mustprogress nounwind uwtable
define linkonce_odr noundef nonnull align 8 dereferenceable(8) ptr @_ZSt3getILm0EJPN3gmx29PositionCalculationCollection4ImplESt14default_deleteIS2_EEERKNSt13tuple_elementIXT_ESt5tupleIJDpT0_EEE4typeERKSA_(ptr noundef nonnull align 8 dereferenceable(8) %0) #3 comdat {
  %2 = alloca ptr, align 8
  store ptr %0, ptr %2, align 8, !tbaa !195
  %3 = load ptr, ptr %2, align 8, !tbaa !195
  %4 = call noundef nonnull align 8 dereferenceable(8) ptr @_ZSt12__get_helperILm0EPN3gmx29PositionCalculationCollection4ImplEJSt14default_deleteIS2_EEERKT0_RKSt11_Tuple_implIXT_EJS6_DpT1_EE(ptr noundef nonnull align 8 dereferenceable(8) %3) #17
  ret ptr %4
}

; Function Attrs: inlinehint mustprogress uwtable
define internal void @"_ZZN3gmx29PositionCalculationCollection4Impl17insertCalculationEP17gmx_ana_poscalc_tS3_ENK3$_0clEv"(ptr noundef nonnull align 1 dereferenceable(1) %0) #2 align 2 {
  %2 = alloca ptr, align 8
  store ptr %0, ptr %2, align 8, !tbaa !9
  call void @_ZN3gmx8internal13assertHandlerEPKcS2_S2_S2_i(ptr noundef @.str.21, ptr noundef @.str.22, ptr noundef @"__PRETTY_FUNCTION__._ZZN3gmx29PositionCalculationCollection4Impl17insertCalculationEP17gmx_ana_poscalc_tS3_ENK3$_0clEv", ptr noundef @.str.18, i32 noundef 387) #18
  unreachable
}

; Function Attrs: mustprogress nounwind uwtable
define linkonce_odr noundef ptr @_ZNKSt15__uniq_ptr_implIN3gmx29PositionCalculationCollection4ImplESt14default_deleteIS2_EE6_M_ptrEv(ptr noundef nonnull align 8 dereferenceable(8) %0) #3 comdat align 2 {
  %2 = alloca ptr, align 8
  store ptr %0, ptr %2, align 8, !tbaa !193
  %3 = load ptr, ptr %2, align 8
  %4 = getelementptr inbounds nuw %"class.std::__uniq_ptr_impl.14", ptr %3, i32 0, i32 0
  %5 = call noundef nonnull align 8 dereferenceable(8) ptr @_ZSt3getILm0EJPN3gmx29PositionCalculationCollection4ImplESt14default_deleteIS2_EEERKNSt13tuple_elementIXT_ESt5tupleIJDpT0_EEE4typeERKSA_(ptr noundef nonnull align 8 dereferenceable(8) %4) #17
  %6 = load ptr, ptr %5, align 8, !tbaa !134
  ret ptr %6
}

; Function Attrs: mustprogress uwtable
define void @_ZN3gmx29PositionCalculationCollection4Impl17insertCalculationEP17gmx_ana_poscalc_tS3_(ptr noundef nonnull align 8 dereferenceable(80) %0, ptr noundef %1, ptr noundef %2) #0 align 2 {
  %4 = alloca ptr, align 8
  %5 = alloca ptr, align 8
  %6 = alloca ptr, align 8
  %7 = alloca %class.anon, align 1
  store ptr %0, ptr %4, align 8, !tbaa !134
  store ptr %1, ptr %5, align 8, !tbaa !171
  store ptr %2, ptr %6, align 8, !tbaa !171
  %8 = load ptr, ptr %4, align 8
  %9 = load ptr, ptr %5, align 8, !tbaa !171
  %10 = getelementptr inbounds nuw %struct.gmx_ana_poscalc_t, ptr %9, i32 0, i32 12
  %11 = load ptr, ptr %10, align 8, !tbaa !172
  %12 = icmp eq ptr %11, %8
  call void @llvm.lifetime.start.p0(i64 1, ptr %7) #17
  br i1 %12, label %13, label %14

13:                                               ; preds = %3
  br label %15

14:                                               ; preds = %3
  call void @"_ZZN3gmx29PositionCalculationCollection4Impl17insertCalculationEP17gmx_ana_poscalc_tS3_ENK3$_0clEv"(ptr noundef nonnull align 1 dereferenceable(1) %7)
  br label %15

15:                                               ; preds = %14, %13
  call void @llvm.lifetime.end.p0(i64 1, ptr %7) #17
  %16 = load ptr, ptr %6, align 8, !tbaa !171
  %17 = icmp eq ptr %16, null
  br i1 %17, label %18, label %36

18:                                               ; preds = %15
  %19 = load ptr, ptr %5, align 8, !tbaa !171
  %20 = getelementptr inbounds nuw %struct.gmx_ana_poscalc_t, ptr %19, i32 0, i32 9
  store ptr null, ptr %20, align 8, !tbaa !181
  %21 = getelementptr inbounds nuw %"class.gmx::PositionCalculationCollection::Impl", ptr %8, i32 0, i32 2
  %22 = load ptr, ptr %21, align 8, !tbaa !145
  %23 = load ptr, ptr %5, align 8, !tbaa !171
  %24 = getelementptr inbounds nuw %struct.gmx_ana_poscalc_t, ptr %23, i32 0, i32 10
  store ptr %22, ptr %24, align 8, !tbaa !182
  %25 = getelementptr inbounds nuw %"class.gmx::PositionCalculationCollection::Impl", ptr %8, i32 0, i32 2
  %26 = load ptr, ptr %25, align 8, !tbaa !145
  %27 = icmp ne ptr %26, null
  br i1 %27, label %28, label %33

28:                                               ; preds = %18
  %29 = load ptr, ptr %5, align 8, !tbaa !171
  %30 = getelementptr inbounds nuw %"class.gmx::PositionCalculationCollection::Impl", ptr %8, i32 0, i32 2
  %31 = load ptr, ptr %30, align 8, !tbaa !145
  %32 = getelementptr inbounds nuw %struct.gmx_ana_poscalc_t, ptr %31, i32 0, i32 9
  store ptr %29, ptr %32, align 8, !tbaa !181
  br label %33

33:                                               ; preds = %28, %18
  %34 = load ptr, ptr %5, align 8, !tbaa !171
  %35 = getelementptr inbounds nuw %"class.gmx::PositionCalculationCollection::Impl", ptr %8, i32 0, i32 2
  store ptr %34, ptr %35, align 8, !tbaa !145
  br label %59

36:                                               ; preds = %15
  %37 = load ptr, ptr %6, align 8, !tbaa !171
  %38 = getelementptr inbounds nuw %struct.gmx_ana_poscalc_t, ptr %37, i32 0, i32 10
  %39 = load ptr, ptr %38, align 8, !tbaa !182
  %40 = load ptr, ptr %5, align 8, !tbaa !171
  %41 = getelementptr inbounds nuw %struct.gmx_ana_poscalc_t, ptr %40, i32 0, i32 10
  store ptr %39, ptr %41, align 8, !tbaa !182
  %42 = load ptr, ptr %6, align 8, !tbaa !171
  %43 = load ptr, ptr %5, align 8, !tbaa !171
  %44 = getelementptr inbounds nuw %struct.gmx_ana_poscalc_t, ptr %43, i32 0, i32 9
  store ptr %42, ptr %44, align 8, !tbaa !181
  %45 = load ptr, ptr %6, align 8, !tbaa !171
  %46 = getelementptr inbounds nuw %struct.gmx_ana_poscalc_t, ptr %45, i32 0, i32 10
  %47 = load ptr, ptr %46, align 8, !tbaa !182
  %48 = icmp ne ptr %47, null
  br i1 %48, label %49, label %55

49:                                               ; preds = %36
  %50 = load ptr, ptr %5, align 8, !tbaa !171
  %51 = load ptr, ptr %6, align 8, !tbaa !171
  %52 = getelementptr inbounds nuw %struct.gmx_ana_poscalc_t, ptr %51, i32 0, i32 10
  %53 = load ptr, ptr %52, align 8, !tbaa !182
  %54 = getelementptr inbounds nuw %struct.gmx_ana_poscalc_t, ptr %53, i32 0, i32 9
  store ptr %50, ptr %54, align 8, !tbaa !181
  br label %55

55:                                               ; preds = %49, %36
  %56 = load ptr, ptr %5, align 8, !tbaa !171
  %57 = load ptr, ptr %6, align 8, !tbaa !171
  %58 = getelementptr inbounds nuw %struct.gmx_ana_poscalc_t, ptr %57, i32 0, i32 10
  store ptr %56, ptr %58, align 8, !tbaa !182
  br label %59

59:                                               ; preds = %55, %33
  %60 = load ptr, ptr %5, align 8, !tbaa !171
  %61 = getelementptr inbounds nuw %struct.gmx_ana_poscalc_t, ptr %60, i32 0, i32 10
  %62 = load ptr, ptr %61, align 8, !tbaa !182
  %63 = icmp eq ptr %62, null
  br i1 %63, label %64, label %67

64:                                               ; preds = %59
  %65 = load ptr, ptr %5, align 8, !tbaa !171
  %66 = getelementptr inbounds nuw %"class.gmx::PositionCalculationCollection::Impl", ptr %8, i32 0, i32 1
  store ptr %65, ptr %66, align 8, !tbaa !144
  br label %67

67:                                               ; preds = %64, %59
  ret void
}

; Function Attrs: mustprogress nounwind uwtable
define void @_Z25gmx_ana_poscalc_set_flagsP17gmx_ana_poscalc_ti(ptr noundef %0, i32 noundef %1) #3 {
  %3 = alloca ptr, align 8
  %4 = alloca i32, align 4
  store ptr %0, ptr %3, align 8, !tbaa !171
  store i32 %1, ptr %4, align 4, !tbaa !15
  %5 = load ptr, ptr %3, align 8, !tbaa !171
  %6 = getelementptr inbounds nuw %struct.gmx_ana_poscalc_t, ptr %5, i32 0, i32 0
  %7 = load i32, ptr %6, align 8, !tbaa !183
  %8 = icmp eq i32 %7, 0
  br i1 %8, label %9, label %12

9:                                                ; preds = %2
  %10 = load i32, ptr %4, align 4, !tbaa !15
  %11 = and i32 %10, -2
  store i32 %11, ptr %4, align 4, !tbaa !15
  br label %12

12:                                               ; preds = %9, %2
  %13 = load i32, ptr %4, align 4, !tbaa !15
  %14 = and i32 %13, 32
  %15 = icmp ne i32 %14, 0
  br i1 %15, label %16, label %19

16:                                               ; preds = %12
  %17 = load i32, ptr %4, align 4, !tbaa !15
  %18 = and i32 %17, -17
  store i32 %18, ptr %4, align 4, !tbaa !15
  br label %19

19:                                               ; preds = %16, %12
  %20 = load ptr, ptr %3, align 8, !tbaa !171
  %21 = getelementptr inbounds nuw %struct.gmx_ana_poscalc_t, ptr %20, i32 0, i32 0
  %22 = load i32, ptr %21, align 8, !tbaa !183
  %23 = icmp ne i32 %22, 1
  br i1 %23, label %24, label %32

24:                                               ; preds = %19
  %25 = load ptr, ptr %3, align 8, !tbaa !171
  %26 = getelementptr inbounds nuw %struct.gmx_ana_poscalc_t, ptr %25, i32 0, i32 0
  %27 = load i32, ptr %26, align 8, !tbaa !183
  %28 = icmp ne i32 %27, 2
  br i1 %28, label %29, label %32

29:                                               ; preds = %24
  %30 = load i32, ptr %4, align 4, !tbaa !15
  %31 = and i32 %30, -7
  store i32 %31, ptr %4, align 4, !tbaa !15
  br label %32

32:                                               ; preds = %29, %24, %19
  %33 = load i32, ptr %4, align 4, !tbaa !15
  %34 = load ptr, ptr %3, align 8, !tbaa !171
  %35 = getelementptr inbounds nuw %struct.gmx_ana_poscalc_t, ptr %34, i32 0, i32 1
  %36 = load i32, ptr %35, align 4, !tbaa !177
  %37 = or i32 %36, %33
  store i32 %37, ptr %35, align 4, !tbaa !177
  ret void
}

; Function Attrs: mustprogress nounwind uwtable
define internal noundef i32 @_ZL22index_type_for_poscalc11e_poscalc_t(i32 noundef %0) #3 {
  %2 = alloca i32, align 4
  %3 = alloca i32, align 4
  store i32 %0, ptr %3, align 4, !tbaa !13
  %4 = load i32, ptr %3, align 4, !tbaa !13
  switch i32 %4, label %9 [
    i32 0, label %5
    i32 1, label %6
    i32 2, label %7
    i32 3, label %8
    i32 4, label %8
  ]

5:                                                ; preds = %1
  store i32 1, ptr %2, align 4
  br label %10

6:                                                ; preds = %1
  store i32 2, ptr %2, align 4
  br label %10

7:                                                ; preds = %1
  store i32 3, ptr %2, align 4
  br label %10

8:                                                ; preds = %1, %1
  store i32 4, ptr %2, align 4
  br label %10

9:                                                ; preds = %1
  store i32 0, ptr %2, align 4
  br label %10

10:                                               ; preds = %9, %8, %7, %6, %5
  %11 = load i32, ptr %2, align 4
  ret i32 %11
}

; Function Attrs: inlinehint mustprogress uwtable
define internal void @_ZL13gmx_snew_implI17gmx_ana_poscalc_tEvPKcS2_iRPT_m(ptr noundef %0, ptr noundef %1, i32 noundef %2, ptr noundef nonnull align 8 dereferenceable(8) %3, i64 noundef %4) #2 {
  %6 = alloca ptr, align 8
  %7 = alloca ptr, align 8
  %8 = alloca i32, align 4
  %9 = alloca ptr, align 8
  %10 = alloca i64, align 8
  store ptr %0, ptr %6, align 8, !tbaa !4
  store ptr %1, ptr %7, align 8, !tbaa !4
  store i32 %2, ptr %8, align 4, !tbaa !15
  store ptr %3, ptr %9, align 8, !tbaa !185
  store i64 %4, ptr %10, align 8, !tbaa !92
  %11 = load ptr, ptr %6, align 8, !tbaa !4
  %12 = load ptr, ptr %7, align 8, !tbaa !4
  %13 = load i32, ptr %8, align 4, !tbaa !15
  %14 = load i64, ptr %10, align 8, !tbaa !92
  %15 = call noundef ptr @_Z11save_callocPKcS0_imm(ptr noundef %11, ptr noundef %12, i32 noundef %13, i64 noundef %14, i64 noundef 144)
  %16 = load ptr, ptr %9, align 8, !tbaa !185
  store ptr %15, ptr %16, align 8, !tbaa !171
  ret void
}

; Function Attrs: mustprogress nounwind uwtable
define linkonce_odr noundef ptr @_ZNKSt10unique_ptrIN3gmx29PositionCalculationCollection4ImplESt14default_deleteIS2_EE3getEv(ptr noundef nonnull align 8 dereferenceable(8) %0) #3 comdat align 2 {
  %2 = alloca ptr, align 8
  store ptr %0, ptr %2, align 8, !tbaa !189
  %3 = load ptr, ptr %2, align 8
  %4 = getelementptr inbounds nuw %"class.std::unique_ptr.12", ptr %3, i32 0, i32 0
  %5 = call noundef ptr @_ZNKSt15__uniq_ptr_implIN3gmx29PositionCalculationCollection4ImplESt14default_deleteIS2_EE6_M_ptrEv(ptr noundef nonnull align 8 dereferenceable(8) %4) #17
  ret ptr %5
}

; Function Attrs: mustprogress uwtable
define noundef ptr @_ZN3gmx29PositionCalculationCollection4Impl17createCalculationE11e_poscalc_ti(ptr noundef nonnull align 8 dereferenceable(80) %0, i32 noundef %1, i32 noundef %2) #0 align 2 {
  %4 = alloca ptr, align 8
  %5 = alloca i32, align 4
  %6 = alloca i32, align 4
  %7 = alloca ptr, align 8
  store ptr %0, ptr %4, align 8, !tbaa !134
  store i32 %1, ptr %5, align 4, !tbaa !13
  store i32 %2, ptr %6, align 4, !tbaa !15
  %8 = load ptr, ptr %4, align 8
  call void @llvm.lifetime.start.p0(i64 8, ptr %7) #17
  call void @_ZL13gmx_snew_implI17gmx_ana_poscalc_tEvPKcS2_iRPT_m(ptr noundef @.str.23, ptr noundef @.str.18, i32 noundef 440, ptr noundef nonnull align 8 dereferenceable(8) %7, i64 noundef 1)
  %9 = load i32, ptr %5, align 4, !tbaa !13
  %10 = load ptr, ptr %7, align 8, !tbaa !171
  %11 = getelementptr inbounds nuw %struct.gmx_ana_poscalc_t, ptr %10, i32 0, i32 0
  store i32 %9, ptr %11, align 8, !tbaa !183
  %12 = load i32, ptr %5, align 4, !tbaa !13
  %13 = call noundef i32 @_ZL22index_type_for_poscalc11e_poscalc_t(i32 noundef %12)
  %14 = load ptr, ptr %7, align 8, !tbaa !171
  %15 = getelementptr inbounds nuw %struct.gmx_ana_poscalc_t, ptr %14, i32 0, i32 2
  store i32 %13, ptr %15, align 8, !tbaa !184
  %16 = load ptr, ptr %7, align 8, !tbaa !171
  %17 = load i32, ptr %6, align 4, !tbaa !15
  call void @_Z25gmx_ana_poscalc_set_flagsP17gmx_ana_poscalc_ti(ptr noundef %16, i32 noundef %17)
  %18 = load ptr, ptr %7, align 8, !tbaa !171
  %19 = getelementptr inbounds nuw %struct.gmx_ana_poscalc_t, ptr %18, i32 0, i32 11
  store i32 1, ptr %19, align 8, !tbaa !162
  %20 = load ptr, ptr %7, align 8, !tbaa !171
  %21 = getelementptr inbounds nuw %struct.gmx_ana_poscalc_t, ptr %20, i32 0, i32 12
  store ptr %8, ptr %21, align 8, !tbaa !172
  %22 = load ptr, ptr %7, align 8, !tbaa !171
  call void @_ZN3gmx29PositionCalculationCollection4Impl17insertCalculationEP17gmx_ana_poscalc_tS3_(ptr noundef nonnull align 8 dereferenceable(80) %8, ptr noundef %22, ptr noundef null)
  %23 = load ptr, ptr %7, align 8, !tbaa !171
  call void @llvm.lifetime.end.p0(i64 8, ptr %7) #17
  ret ptr %23
}

; Function Attrs: mustprogress nounwind uwtable
define linkonce_odr noundef ptr @_ZNKSt10unique_ptrIN3gmx29PositionCalculationCollection4ImplESt14default_deleteIS2_EEptEv(ptr noundef nonnull align 8 dereferenceable(8) %0) #3 comdat align 2 {
  %2 = alloca ptr, align 8
  store ptr %0, ptr %2, align 8, !tbaa !189
  %3 = load ptr, ptr %2, align 8
  %4 = call noundef ptr @_ZNKSt10unique_ptrIN3gmx29PositionCalculationCollection4ImplESt14default_deleteIS2_EE3getEv(ptr noundef nonnull align 8 dereferenceable(8) %3) #17
  ret ptr %4
}

; Function Attrs: mustprogress uwtable
define noundef ptr @_ZN3gmx29PositionCalculationCollection17createCalculationE11e_poscalc_ti(ptr noundef nonnull align 8 dereferenceable(8) %0, i32 noundef %1, i32 noundef %2) #0 align 2 {
  %4 = alloca ptr, align 8
  %5 = alloca i32, align 4
  %6 = alloca i32, align 4
  store ptr %0, ptr %4, align 8, !tbaa !187
  store i32 %1, ptr %5, align 4, !tbaa !13
  store i32 %2, ptr %6, align 4, !tbaa !15
  %7 = load ptr, ptr %4, align 8
  %8 = getelementptr inbounds nuw %"class.gmx::PositionCalculationCollection", ptr %7, i32 0, i32 0
  %9 = call noundef ptr @_ZNKSt10unique_ptrIN3gmx29PositionCalculationCollection4ImplESt14default_deleteIS2_EEptEv(ptr noundef nonnull align 8 dereferenceable(8) %8) #17
  %10 = load i32, ptr %5, align 4, !tbaa !13
  %11 = load i32, ptr %6, align 4, !tbaa !15
  %12 = call noundef ptr @_ZN3gmx29PositionCalculationCollection4Impl17createCalculationE11e_poscalc_ti(ptr noundef nonnull align 8 dereferenceable(80) %9, i32 noundef %10, i32 noundef %11)
  ret ptr %12
}