; Function Attrs: mustprogress uwtable
define noundef ptr @_ZN3gmx29PositionCalculationCollection17createCalculationE11e_poscalc_ti(ptr noundef nonnull readonly align 8 captures(none) dereferenceable(8) %0, i32 noundef %1, i32 noundef %2) local_unnamed_addr #0 align 2 {
  %4 = load ptr, ptr %0, align 8, !tbaa !84
  %5 = tail call noundef ptr @_Z11save_callocPKcS0_imm(ptr noundef nonnull @.str.23, ptr noundef nonnull @.str.18, i32 noundef 440, i64 noundef 1, i64 noundef 144)
  store i32 %1, ptr %5, align 8, !tbaa !82
  %6 = icmp ult i32 %1, 5
  br i1 %6, label %switch.lookup, label %8

switch.lookup:                                    ; preds = %3
  %7 = zext nneg i32 %1 to i64
  %switch.gep = getelementptr inbounds nuw [5 x i32], ptr @switch.table._ZL18create_simple_baseP17gmx_ana_poscalc_t, i64 0, i64 %7
  %switch.load = load i32, ptr %switch.gep, align 4
  br label %8

8:                                                ; preds = %3, %switch.lookup
  %.0.i.i = phi i32 [ %switch.load, %switch.lookup ], [ 0, %3 ]
  %9 = getelementptr inbounds nuw i8, ptr %5, i64 8
  store i32 %.0.i.i, ptr %9, align 8, !tbaa !83
  %10 = icmp eq i32 %1, 0
  %11 = and i32 %2, -2
  %spec.select.i.i = select i1 %10, i32 %11, i32 %2
  %12 = and i32 %spec.select.i.i, 32
  %.not.i.i = icmp eq i32 %12, 0
  %13 = and i32 %spec.select.i.i, -17
  %.1.i.i = select i1 %.not.i.i, i32 %spec.select.i.i, i32 %13
  %.off.i.i = add i32 %1, -1
  %switch.i.i = icmp ult i32 %.off.i.i, 2
  %14 = and i32 %.1.i.i, -7
  %spec.select11.i.i = select i1 %switch.i.i, i32 %.1.i.i, i32 %14
  %15 = getelementptr inbounds nuw i8, ptr %5, i64 4
  %16 = load i32, ptr %15, align 4, !tbaa !78
  %17 = or i32 %16, %spec.select11.i.i
  store i32 %17, ptr %15, align 4, !tbaa !78
  %18 = getelementptr inbounds nuw i8, ptr %5, i64 128
  store i32 1, ptr %18, align 8, !tbaa !58
  %19 = getelementptr inbounds nuw i8, ptr %5, i64 136
  store ptr %4, ptr %19, align 8, !tbaa !70
  %20 = getelementptr inbounds nuw i8, ptr %5, i64 112
  store ptr null, ptr %20, align 8, !tbaa !72
  %21 = getelementptr inbounds nuw i8, ptr %4, i64 16
  %22 = load ptr, ptr %21, align 8, !tbaa !48
  %23 = getelementptr inbounds nuw i8, ptr %5, i64 120
  store ptr %22, ptr %23, align 8, !tbaa !71
  %.not20.i.i = icmp eq ptr %22, null
  br i1 %.not20.i.i, label %26, label %24

24:                                               ; preds = %8
  %25 = getelementptr inbounds nuw i8, ptr %22, i64 112
  store ptr %5, ptr %25, align 8, !tbaa !72
  br label %_ZN3gmx29PositionCalculationCollection4Impl17createCalculationE11e_poscalc_ti.exit

26:                                               ; preds = %8
  %27 = getelementptr inbounds nuw i8, ptr %4, i64 8
  store ptr %5, ptr %27, align 8, !tbaa !73
  br label %_ZN3gmx29PositionCalculationCollection4Impl17createCalculationE11e_poscalc_ti.exit

_ZN3gmx29PositionCalculationCollection4Impl17createCalculationE11e_poscalc_ti.exit: ; preds = %24, %26
  store ptr %5, ptr %21, align 8, !tbaa !48
  ret ptr %5
}